; Function Attrs: nounwind uwtable
define hidden void @Curl_llist_destroy(ptr noundef readonly %0, ptr noundef %1) local_unnamed_addr #2 {
  %.not = icmp eq ptr %0, null
  br i1 %.not, label %.loopexit, label %.preheader

.preheader:                                       ; preds = %2
  %3 = getelementptr inbounds nuw i8, ptr %0, i64 24
  %4 = load i64, ptr %3, align 8, !tbaa !3
  %.not45 = icmp eq i64 %4, 0
  br i1 %.not45, label %.loopexit, label %.lr.ph

.lr.ph:                                           ; preds = %.preheader
  %5 = getelementptr inbounds nuw i8, ptr %0, i64 8
  %6 = load ptr, ptr %5, align 8, !tbaa !16
  %7 = icmp eq ptr %6, null
  br i1 %7, label %Curl_node_uremove.exit.us, label %.lr.ph.split

Curl_node_uremove.exit.us:                        ; preds = %.lr.ph, %Curl_node_uremove.exit.us
  br label %Curl_node_uremove.exit.us

.lr.ph.splitthread-pre-split:                     ; preds = %Curl_node_uremove.exit
  %.pr = load ptr, ptr %5, align 8, !tbaa !16
  br label %.lr.ph.split

.lr.ph.split:                                     ; preds = %.lr.ph, %.lr.ph.splitthread-pre-split
  %8 = phi ptr [ %.pr, %.lr.ph.splitthread-pre-split ], [ %6, %.lr.ph ]
  %.not.i = icmp eq ptr %8, null
  br i1 %.not.i, label %Curl_node_uremove.exit, label %9

9:                                                ; preds = %.lr.ph.split
  %10 = load ptr, ptr %8, align 8, !tbaa !14
  %.not10.i = icmp eq ptr %10, null
  br i1 %.not10.i, label %Curl_node_uremove.exit, label %11

11:                                               ; preds = %9
  %12 = load ptr, ptr %10, align 8, !tbaa !15
  %13 = icmp eq ptr %8, %12
  br i1 %13, label %14, label %21

14:                                               ; preds = %11
  %15 = getelementptr inbounds nuw i8, ptr %8, i64 24
  %16 = load ptr, ptr %15, align 8, !tbaa !18
  store ptr %16, ptr %10, align 8, !tbaa !15
  %.not33.i.i = icmp eq ptr %16, null
  br i1 %.not33.i.i, label %17, label %19

17:                                               ; preds = %14
  %18 = getelementptr inbounds nuw i8, ptr %10, i64 8
  store ptr null, ptr %18, align 8, !tbaa !16
  br label %Curl_node_take_elem.exit.i

19:                                               ; preds = %14
  %20 = getelementptr inbounds nuw i8, ptr %16, i64 16
  store ptr null, ptr %20, align 8, !tbaa !19
  br label %Curl_node_take_elem.exit.i

21:                                               ; preds = %11
  %22 = getelementptr inbounds nuw i8, ptr %8, i64 16
  %23 = load ptr, ptr %22, align 8, !tbaa !19
  %.not31.i.i = icmp eq ptr %23, null
  %.phi.trans.insert.i.i = getelementptr inbounds nuw i8, ptr %8, i64 24
  %.pre.i.i = load ptr, ptr %.phi.trans.insert.i.i, align 8, !tbaa !18
  br i1 %.not31.i.i, label %._crit_edge.i.i, label %24

24:                                               ; preds = %21
  %25 = getelementptr inbounds nuw i8, ptr %23, i64 24
  store ptr %.pre.i.i, ptr %25, align 8, !tbaa !18
  br label %._crit_edge.i.i

._crit_edge.i.i:                                  ; preds = %24, %21
  %.not32.i.i = icmp eq ptr %.pre.i.i, null
  br i1 %.not32.i.i, label %26, label %28

26:                                               ; preds = %._crit_edge.i.i
  %27 = getelementptr inbounds nuw i8, ptr %10, i64 8
  store ptr %23, ptr %27, align 8, !tbaa !16
  br label %Curl_node_take_elem.exit.i

28:                                               ; preds = %._crit_edge.i.i
  %29 = getelementptr inbounds nuw i8, ptr %.pre.i.i, i64 16
  store ptr %23, ptr %29, align 8, !tbaa !19
  br label %Curl_node_take_elem.exit.i

Curl_node_take_elem.exit.i:                       ; preds = %28, %26, %19, %17
  %30 = getelementptr inbounds nuw i8, ptr %10, i64 24
  %31 = load i64, ptr %30, align 8, !tbaa !3
  %32 = add i64 %31, -1
  store i64 %32, ptr %30, align 8, !tbaa !3
  %33 = getelementptr inbounds nuw i8, ptr %8, i64 8
  %34 = load ptr, ptr %33, align 8, !tbaa !11
  tail call void @llvm.memset.p0.i64(ptr noundef nonnull align 8 dereferenceable(32) %8, i8 0, i64 32, i1 false)
  %35 = getelementptr inbounds nuw i8, ptr %10, i64 16
  %36 = load ptr, ptr %35, align 8, !tbaa !10
  %.not11.i = icmp eq ptr %36, null
  br i1 %.not11.i, label %Curl_node_uremove.exit, label %37

37:                                               ; preds = %Curl_node_take_elem.exit.i
  tail call void %36(ptr noundef %1, ptr noundef %34) #5
  br label %Curl_node_uremove.exit

Curl_node_uremove.exit:                           ; preds = %.lr.ph.split, %9, %Curl_node_take_elem.exit.i, %37
  %38 = load i64, ptr %3, align 8, !tbaa !3
  %.not4 = icmp eq i64 %38, 0
  br i1 %.not4, label %.loopexit, label %.lr.ph.splitthread-pre-split, !llvm.loop !20

.loopexit:                                        ; preds = %Curl_node_uremove.exit, %.preheader, %2
  ret void
}